; ModuleID = '49/1190.c'
source_filename = "49/1190.c"
target datalayout = "e-m:e-p270:32:32-p271:32:32-p272:64:64-i64:64-f80:128-n8:16:32:64-S128"
target triple = "x86_64-pc-linux-gnu"

@.str = private unnamed_addr constant [3 x i8] c"%s\00", align 1
@.str.1 = private unnamed_addr constant [3 x i8] c"%c\00", align 1
@.str.2 = private unnamed_addr constant [2 x i8] c"\0A\00", align 1

; Function Attrs: noinline nounwind uwtable
define dso_local i32 @main() #0 {
  %1 = alloca i32, align 4
  %2 = alloca [500 x i8], align 16
  %3 = alloca i32, align 4
  %4 = alloca i32, align 4
  %5 = alloca i32, align 4
  %6 = alloca i32, align 4
  %7 = alloca i32, align 4
  %8 = alloca i32, align 4
  store i32 0, i32* %1, align 4
  store i32 0, i32* %5, align 4
  store i32 0, i32* %6, align 4
  store i32 2, i32* %7, align 4
  store i32 1, i32* %8, align 4
  %9 = getelementptr inbounds [500 x i8], [500 x i8]* %2, i64 0, i64 0
  %10 = call i32 (i8*, ...) @__isoc99_scanf(i8* getelementptr inbounds ([3 x i8], [3 x i8]* @.str, i64 0, i64 0), i8* %9)
  %11 = getelementptr inbounds [500 x i8], [500 x i8]* %2, i64 0, i64 0
  %12 = call i64 @strlen(i8* %11) #3
  %13 = trunc i64 %12 to i32
  store i32 %13, i32* %3, align 4
  store i32 2, i32* %7, align 4
  br label %14

14:                                               ; preds = %86, %0
  %15 = load i32, i32* %7, align 4
  %16 = load i32, i32* %3, align 4
  %17 = icmp sle i32 %15, %16
  br i1 %17, label %18, label %89

18:                                               ; preds = %14
  store i32 0, i32* %5, align 4
  br label %19

19:                                               ; preds = %82, %18
  %20 = load i32, i32* %5, align 4
  %21 = load i32, i32* %3, align 4
  %22 = icmp slt i32 %20, %21
  br i1 %22, label %23, label %85

23:                                               ; preds = %19
  store i32 1, i32* %8, align 4
  %24 = load i32, i32* %5, align 4
  store i32 %24, i32* %6, align 4
  %25 = load i32, i32* %5, align 4
  store i32 %25, i32* %6, align 4
  br label %26

26:                                               ; preds = %53, %23
  %27 = load i32, i32* %6, align 4
  %28 = load i32, i32* %5, align 4
  %29 = load i32, i32* %7, align 4
  %30 = add nsw i32 %28, %29
  %31 = sub nsw i32 %30, 1
  %32 = icmp sle i32 %27, %31
  br i1 %32, label %33, label %56

33:                                               ; preds = %26
  %34 = load i32, i32* %6, align 4
  %35 = sext i32 %34 to i64
  %36 = getelementptr inbounds [500 x i8], [500 x i8]* %2, i64 0, i64 %35
  %37 = load i8, i8* %36, align 1
  %38 = sext i8 %37 to i32
  %39 = load i32, i32* %5, align 4
  %40 = mul nsw i32 2, %39
  %41 = load i32, i32* %6, align 4
  %42 = sub nsw i32 %40, %41
  %43 = load i32, i32* %7, align 4
  %44 = add nsw i32 %42, %43
  %45 = sub nsw i32 %44, 1
  %46 = sext i32 %45 to i64
  %47 = getelementptr inbounds [500 x i8], [500 x i8]* %2, i64 0, i64 %46
  %48 = load i8, i8* %47, align 1
  %49 = sext i8 %48 to i32
  %50 = icmp ne i32 %38, %49
  br i1 %50, label %51, label %52

51:                                               ; preds = %33
  store i32 0, i32* %8, align 4
  br label %52

52:                                               ; preds = %51, %33
  br label %53

53:                                               ; preds = %52
  %54 = load i32, i32* %6, align 4
  %55 = add nsw i32 %54, 1
  store i32 %55, i32* %6, align 4
  br label %26

56:                                               ; preds = %26
  %57 = load i32, i32* %8, align 4
  %58 = icmp eq i32 %57, 1
  br i1 %58, label %59, label %81

59:                                               ; preds = %56
  %60 = load i32, i32* %5, align 4
  store i32 %60, i32* %4, align 4
  %61 = load i32, i32* %5, align 4
  store i32 %61, i32* %4, align 4
  br label %62

62:                                               ; preds = %76, %59
  %63 = load i32, i32* %4, align 4
  %64 = load i32, i32* %5, align 4
  %65 = load i32, i32* %7, align 4
  %66 = add nsw i32 %64, %65
  %67 = sub nsw i32 %66, 1
  %68 = icmp sle i32 %63, %67
  br i1 %68, label %69, label %79

69:                                               ; preds = %62
  %70 = load i32, i32* %4, align 4
  %71 = sext i32 %70 to i64
  %72 = getelementptr inbounds [500 x i8], [500 x i8]* %2, i64 0, i64 %71
  %73 = load i8, i8* %72, align 1
  %74 = sext i8 %73 to i32
  %75 = call i32 (i8*, ...) @printf(i8* getelementptr inbounds ([3 x i8], [3 x i8]* @.str.1, i64 0, i64 0), i32 %74)
  br label %76

76:                                               ; preds = %69
  %77 = load i32, i32* %4, align 4
  %78 = add nsw i32 %77, 1
  store i32 %78, i32* %4, align 4
  br label %62

79:                                               ; preds = %62
  %80 = call i32 (i8*, ...) @printf(i8* getelementptr inbounds ([2 x i8], [2 x i8]* @.str.2, i64 0, i64 0))
  br label %81

81:                                               ; preds = %79, %56
  br label %82

82:                                               ; preds = %81
  %83 = load i32, i32* %5, align 4
  %84 = add nsw i32 %83, 1
  store i32 %84, i32* %5, align 4
  br label %19

85:                                               ; preds = %19
  br label %86

86:                                               ; preds = %85
  %87 = load i32, i32* %7, align 4
  %88 = add nsw i32 %87, 1
  store i32 %88, i32* %7, align 4
  br label %14

89:                                               ; preds = %14
  ret i32 0
}

declare dso_local i32 @__isoc99_scanf(i8*, ...) #1

; Function Attrs: nounwind readonly
declare dso_local i64 @strlen(i8*) #2

declare dso_local i32 @printf(i8*, ...) #1


!llvm.module.flags = !{!0}
!llvm.ident = !{!1}

!0 = !{i32 1, !"wchar_size", i32 4}
!1 = !{!"clang version 10.0.0-4ubuntu1 "}
